target datalayout = "e-m:e-p270:32:32-p271:32:32-p272:64:64-i64:64-i128:128-f80:128-n8:16:32:64-S128"
target triple = "x86_64-pc-linux-gnu"

@.str.1741 = private unnamed_addr constant [21 x i8] c"%u TS supported (%u)\00", align 1
@.str.1742 = private unnamed_addr constant [14 x i8] c"Reserved (%u)\00", align 1

; Function Attrs: null_pointer_is_valid sspstrong uwtable
define internal void @gsm_a_gm_dlmc_max_nb_dl_ts_fmt(ptr noundef %0, i32 noundef %1) #1 {
  %3 = alloca ptr, align 8
  %4 = alloca i32, align 4
  store ptr %0, ptr %3, align 8
  store i32 %1, ptr %4, align 4
  %5 = load i32, ptr %4, align 4
  %6 = icmp ult i32 %5, 62
  br i1 %6, label %7, label %16

7:                                                ; preds = %2
  %8 = load ptr, ptr %3, align 8
  %9 = load ptr, ptr %3, align 8
  %10 = call i64 @llvm.objectsize.i64.p0(ptr %9, i1 false, i1 true, i1 true)
  %11 = load i32, ptr %4, align 4
  %12 = mul i32 2, %11
  %13 = add i32 %12, 6
  %14 = load i32, ptr %4, align 4
  %15 = call i32 (ptr, i64, i32, i64, ptr, ...) @__snprintf_chk(ptr noundef %8, i64 noundef 240, i32 noundef 2, i64 noundef %10, ptr noundef @.str.1741, i32 noundef %13, i32 noundef %14)
  br label %22

16:                                               ; preds = %2
  %17 = load ptr, ptr %3, align 8
  %18 = load ptr, ptr %3, align 8
  %19 = call i64 @llvm.objectsize.i64.p0(ptr %18, i1 false, i1 true, i1 true)
  %20 = load i32, ptr %4, align 4
  %21 = call i32 (ptr, i64, i32, i64, ptr, ...) @__snprintf_chk(ptr noundef %17, i64 noundef 240, i32 noundef 2, i64 noundef %19, ptr noundef @.str.1742, i32 noundef %20)
  br label %22

22:                                               ; preds = %16, %7
  ret void
}