; Function Attrs: nofree null_pointer_is_valid sspstrong uwtable
define internal void @gsm_a_gm_dlmc_max_nb_dl_ts_fmt(ptr noundef %0, i32 noundef %1) #4 {
  %3 = icmp ult i32 %1, 62
  br i1 %3, label %4, label %8

4:                                                ; preds = %2
  %5 = shl nuw nsw i32 %1, 1
  %6 = add nuw nsw i32 %5, 6
  %7 = tail call i32 (ptr, i64, i32, i64, ptr, ...) @__snprintf_chk(ptr noundef %0, i64 noundef 240, i32 noundef 2, i64 noundef -1, ptr noundef nonnull @.str.1741, i32 noundef %6, i32 noundef %1)
  br label %10

8:                                                ; preds = %2
  %9 = tail call i32 (ptr, i64, i32, i64, ptr, ...) @__snprintf_chk(ptr noundef %0, i64 noundef 240, i32 noundef 2, i64 noundef -1, ptr noundef nonnull @.str.1742, i32 noundef %1)
  br label %10

10:                                               ; preds = %8, %4
  ret void
}